   1               		.file	"EVM.c"
   2               	__SREG__ = 0x3f
   3               	__SP_H__ = 0x3e
   4               	__SP_L__ = 0x3d
   5               	__CCP__  = 0x34
   6               	__tmp_reg__ = 0
   7               	__zero_reg__ = 1
  15               	.Ltext0:
  16               	.global	__vector_11
  18               	__vector_11:
  19               	.LFB2:
  20               	.LM1:
  21 0000 1F92      		push __zero_reg__
  22 0002 0F92      		push r0
  23 0004 0FB6      		in r0,__SREG__
  24 0006 0F92      		push r0
  25 0008 1124      		clr __zero_reg__
  26 000a 2F93      		push r18
  27 000c 8F93      		push r24
  28 000e 9F93      		push r25
  29 0010 EF93      		push r30
  30 0012 FF93      		push r31
  31               	/* prologue: Signal */
  32               	/* frame size = 0 */
  33               	.LM2:
  34 0014 9BB1      		in r25,43-32
  35               	.LVL0:
  36               	.LM3:
  37 0016 2CB1      		in r18,44-32
  38               	.LVL1:
  39               	.LM4:
  40 0018 E091 0000 		lds r30,UART_RxHead
  41               	.LVL2:
  42 001c EF5F      		subi r30,lo8(-(1))
  43               	.LM5:
  44 001e 8091 0000 		lds r24,UART_RxTail
  45 0022 E817      		cp r30,r24
  46 0024 01F4      		brne .L2
  47 0026 82E0      		ldi r24,lo8(2)
  48               	.LVL3:
  49 0028 00C0      		rjmp .L3
  50               	.LVL4:
  51               	.L2:
  52               	.LM6:
  53 002a 892F      		mov r24,r25
  54               	.LVL5:
  55 002c 8871      		andi r24,lo8(24)
  56               	.LM7:
  57 002e E093 0000 		sts UART_RxHead,r30
  58               	.LM8:
  59 0032 F0E0      		ldi r31,lo8(0)
  60 0034 E050      		subi r30,lo8(-(UART_RxBuf))
  61 0036 F040      		sbci r31,hi8(-(UART_RxBuf))
  62               	.LVL6:
  63 0038 2083      		st Z,r18
  64               	.LVL7:
  65               	.L3:
  66               	.LM9:
  67 003a 8093 0000 		sts UART_LastRxError,r24
  68               	/* epilogue start */
  69               	.LM10:
  70 003e FF91      		pop r31
  71 0040 EF91      		pop r30
  72               	.LVL8:
  73 0042 9F91      		pop r25
  74               	.LVL9:
  75 0044 8F91      		pop r24
  76               	.LVL10:
  77 0046 2F91      		pop r18
  78               	.LVL11:
  79 0048 0F90      		pop r0
  80 004a 0FBE      		out __SREG__,r0
  81 004c 0F90      		pop r0
  82 004e 1F90      		pop __zero_reg__
  83 0050 1895      		reti
  84               	.LFE2:
  86               	.global	__vector_12
  88               	__vector_12:
  89               	.LFB3:
  90               	.LM11:
  91 0052 1F92      		push __zero_reg__
  92 0054 0F92      		push r0
  93 0056 0FB6      		in r0,__SREG__
  94 0058 0F92      		push r0
  95 005a 1124      		clr __zero_reg__
  96 005c 8F93      		push r24
  97 005e 9F93      		push r25
  98 0060 EF93      		push r30
  99 0062 FF93      		push r31
 100               	/* prologue: Signal */
 101               	/* frame size = 0 */
 102               	.LM12:
 103 0064 9091 0000 		lds r25,UART_TxHead
 104 0068 8091 0000 		lds r24,UART_TxTail
 105 006c 9817      		cp r25,r24
 106 006e 01F0      		breq .L6
 107               	.LM13:
 108 0070 E091 0000 		lds r30,UART_TxTail
 109               	.LVL12:
 110 0074 EF5F      		subi r30,lo8(-(1))
 111 0076 EF71      		andi r30,lo8(31)
 112               	.LM14:
 113 0078 E093 0000 		sts UART_TxTail,r30
 114               	.LM15:
 115 007c F0E0      		ldi r31,lo8(0)
 116 007e E050      		subi r30,lo8(-(UART_TxBuf))
 117 0080 F040      		sbci r31,hi8(-(UART_TxBuf))
 118               	.LVL13:
 119 0082 8081      		ld r24,Z
 120 0084 8CB9      		out 44-32,r24
 121 0086 00C0      		rjmp .L8
 122               	.L6:
 123               	.LM16:
 124 0088 5598      		cbi 42-32,5
 125               	.L8:
 126               	/* epilogue start */
 127               	.LM17:
 128 008a FF91      		pop r31
 129 008c EF91      		pop r30
 130 008e 9F91      		pop r25
 131 0090 8F91      		pop r24
 132 0092 0F90      		pop r0
 133 0094 0FBE      		out __SREG__,r0
 134 0096 0F90      		pop r0
 135 0098 1F90      		pop __zero_reg__
 136 009a 1895      		reti
 137               	.LFE3:
 139               	.global	clearBuffer
 141               	clearBuffer:
 142               	.LFB4:
 143               	.LM18:
 144               	/* prologue: function */
 145               	/* frame size = 0 */
 146               	.LM19:
 147 009c 1092 0000 		sts UART_RxHead,__zero_reg__
 148               	.LM20:
 149 00a0 1092 0000 		sts UART_RxTail,__zero_reg__
 150               	/* epilogue start */
 151               	.LM21:
 152 00a4 0895      		ret
 153               	.LFE4:
 155               	.global	uart_init
 157               	uart_init:
 158               	.LFB5:
 159               	.LM22:
 160               	.LVL14:
 161               	/* prologue: function */
 162               	/* frame size = 0 */
 163 00a6 9C01      		movw r18,r24
 164               	.LM23:
 165 00a8 1092 0000 		sts UART_TxHead,__zero_reg__
 166               	.LM24:
 167 00ac 1092 0000 		sts UART_TxTail,__zero_reg__
 168               	.LM25:
 169 00b0 1092 0000 		sts UART_RxHead,__zero_reg__
 170               	.LM26:
 171 00b4 1092 0000 		sts UART_RxTail,__zero_reg__
 172               	.LM27:
 173 00b8 97FF      		sbrs r25,7
 174 00ba 00C0      		rjmp .L12
 175               	.LM28:
 176 00bc 82E0      		ldi r24,lo8(2)
 177               	.LVL15:
 178 00be 8BB9      		out 43-32,r24
 179               	.LM29:
 180 00c0 3F77      		andi r19,hi8(32767)
 181               	.LVL16:
 182               	.L12:
 183               	.LM30:
 184 00c2 30BD      		out 64-32,r19
 185               	.LVL17:
 186               	.LM31:
 187 00c4 29B9      		out 41-32,r18
 188               	.LM32:
 189 00c6 88E9      		ldi r24,lo8(-104)
 190 00c8 8AB9      		out 42-32,r24
 191               	.LM33:
 192 00ca 86E8      		ldi r24,lo8(-122)
 193 00cc 80BD      		out 64-32,r24
 194               	/* epilogue start */
 195               	.LM34:
 196 00ce 0895      		ret
 197               	.LFE5:
 199               	.global	uart_getc
 201               	uart_getc:
 202               	.LFB6:
 203               	.LM35:
 204               	/* prologue: function */
 205               	/* frame size = 0 */
 206               	.LM36:
 207 00d0 9091 0000 		lds r25,UART_RxHead
 208 00d4 8091 0000 		lds r24,UART_RxTail
 209 00d8 9817      		cp r25,r24
 210 00da 01F4      		brne .L15
 211 00dc 20E0      		ldi r18,lo8(256)
 212 00de 31E0      		ldi r19,hi8(256)
 213 00e0 00C0      		rjmp .L16
 214               	.L15:
 215               	.LM37:
 216 00e2 E091 0000 		lds r30,UART_RxTail
 217               	.LVL18:
 218 00e6 EF5F      		subi r30,lo8(-(1))
 219               	.LM38:
 220 00e8 E093 0000 		sts UART_RxTail,r30
 221               	.LM39:
 222 00ec F0E0      		ldi r31,lo8(0)
 223 00ee E050      		subi r30,lo8(-(UART_RxBuf))
 224 00f0 F040      		sbci r31,hi8(-(UART_RxBuf))
 225               	.LVL19:
 226 00f2 3081      		ld r19,Z
 227               	.LVL20:
 228               	.LM40:
 229 00f4 2091 0000 		lds r18,UART_LastRxError
 230 00f8 922F      		mov r25,r18
 231 00fa 80E0      		ldi r24,lo8(0)
 232 00fc AC01      		movw r20,r24
 233 00fe 430F      		add r20,r19
 234 0100 511D      		adc r21,__zero_reg__
 235 0102 9A01      		movw r18,r20
 236               	.L16:
 237               	.LM41:
 238 0104 C901      		movw r24,r18
 239               	/* epilogue start */
 240 0106 0895      		ret
 241               	.LFE6:
 243               	.global	transmitByte
 245               	transmitByte:
 246               	.LFB7:
 247               	.LM42:
 248               	/* prologue: function */
 249               	/* frame size = 0 */
 250               	.LVL21:
 251               	.L19:
 252               	.LM43:
 253 0108 5D9B      		sbis 43-32,5
 254 010a 00C0      		rjmp .L19
 255               	.LM44:
 256 010c 8CB9      		out 44-32,r24
 257               	/* epilogue start */
 258               	.LM45:
 259 010e 0895      		ret
 260               	.LFE7:
 262               	.global	uart_putc
 264               	uart_putc:
 265               	.LFB8:
 266               	.LM46:
 267               	/* prologue: function */
 268               	/* frame size = 0 */
 269               	.LVL22:
 270               	.L23:
 271               	.LBB83:
 272               	.LBB84:
 273               	.LM47:
 274 0110 5D9B      		sbis 43-32,5
 275 0112 00C0      		rjmp .L23
 276               	.LM48:
 277 0114 8CB9      		out 44-32,r24
 278               	/* epilogue start */
 279               	.LBE84:
 280               	.LBE83:
 281               	.LM49:
 282 0116 0895      		ret
 283               	.LFE8:
 285               	.global	uart_puts
 287               	uart_puts:
 288               	.LFB9:
 289               	.LM50:
 290               	.LVL23:
 291               	/* prologue: function */
 292               	/* frame size = 0 */
 293 0118 FC01      		movw r30,r24
 294 011a 00C0      		rjmp .L27
 295               	.LVL24:
 296               	.L30:
 297               	.LBB85:
 298               	.LBB86:
 299               	.LBB87:
 300               	.LBB88:
 301               	.LM51:
 302 011c 5D9B      		sbis 43-32,5
 303 011e 00C0      		rjmp .L30
 304               	.LBE88:
 305               	.LBE87:
 306               	.LBE86:
 307               	.LBE85:
 308               	.LM52:
 309 0120 3196      		adiw r30,1
 310               	.LBB92:
 311               	.LBB91:
 312               	.LBB90:
 313               	.LBB89:
 314               	.LM53:
 315 0122 8CB9      		out 44-32,r24
 316               	.LVL25:
 317               	.L27:
 318               	.LBE89:
 319               	.LBE90:
 320               	.LBE91:
 321               	.LBE92:
 322               	.LM54:
 323 0124 8081      		ld r24,Z
 324 0126 8823      		tst r24
 325 0128 01F4      		brne .L30
 326               	/* epilogue start */
 327               	.LM55:
 328 012a 0895      		ret
 329               	.LFE9:
 331               	.global	uart_puts_p
 333               	uart_puts_p:
 334               	.LFB10:
 335               	.LM56:
 336               	.LVL26:
 337               	/* prologue: function */
 338               	/* frame size = 0 */
 339 012c 00C0      		rjmp .L33
 340               	.LVL27:
 341               	.L36:
 342               	.LBB93:
 343               	.LBB94:
 344               	.LBB95:
 345               	.LBB96:
 346               	.LM57:
 347 012e 5D9B      		sbis 43-32,5
 348 0130 00C0      		rjmp .L36
 349               	.LM58:
 350 0132 2CB9      		out 44-32,r18
 351               	.L33:
 352 0134 FC01      		movw r30,r24
 353               	.LBE96:
 354               	.LBE95:
 355               	.LBE94:
 356               	.LBE93:
 357               	.LBB97:
 358               	.LM59:
 359 0136 0196      		adiw r24,1
 360               	/* #APP */
 361               	 ;  391 "uart.c" 1
 362 0138 2491      		lpm r18, Z
 363               		
 364               	 ;  0 "" 2
 365               	/* #NOAPP */
 366               	.LBE97:
 367 013a 2223      		tst r18
 368 013c 01F4      		brne .L36
 369               	/* epilogue start */
 370               	.LM60:
 371 013e 0895      		ret
 372               	.LFE10:
 375               	lcd_write:
 376               	.LFB18:
 377               	.LM61:
 378               	.LVL28:
 379               	/* prologue: function */
 380               	/* frame size = 0 */
 381               	.LM62:
 382 0140 6623      		tst r22
 383 0142 01F0      		breq .L39
 384               	.LM63:
 385 0144 C09A      		sbi 56-32,0
 386 0146 00C0      		rjmp .L40
 387               	.L39:
 388               	.LM64:
 389 0148 C098      		cbi 56-32,0
 390               	.L40:
 391               	.LM65:
 392 014a C198      		cbi 56-32,1
 393               	.LM66:
 394 014c BB9A      		sbi 55-32,3
 395               	.LM67:
 396 014e BC9A      		sbi 55-32,4
 397               	.LM68:
 398 0150 BD9A      		sbi 55-32,5
 399               	.LM69:
 400 0152 BE9A      		sbi 55-32,6
 401               	.LM70:
 402 0154 C698      		cbi 56-32,6
 403               	.LM71:
 404 0156 C598      		cbi 56-32,5
 405               	.LM72:
 406 0158 C498      		cbi 56-32,4
 407               	.LM73:
 408 015a C398      		cbi 56-32,3
 409               	.LM74:
 410 015c 87FD      		sbrc r24,7
 411 015e C69A      		sbi 56-32,6
 412               	.L41:
 413               	.LM75:
 414 0160 86FD      		sbrc r24,6
 415               	.LVL29:
 416 0162 C59A      		sbi 56-32,5
 417               	.L42:
 418               	.LM76:
 419 0164 85FD      		sbrc r24,5
 420 0166 C49A      		sbi 56-32,4
 421               	.L43:
 422               	.LM77:
 423 0168 84FD      		sbrc r24,4
 424 016a C39A      		sbi 56-32,3
 425               	.L44:
 426               	.LBB98:
 427               	.LBB99:
 428               	.LM78:
 429 016c C29A      		sbi 56-32,2
 430               	.LM79:
 431               	/* #APP */
 432               	 ;  121 "lcd.c" 1
 433 016e 00C0      		rjmp 1f
 434               	 1:
 435               	 ;  0 "" 2
 436               	.LM80:
 437               	/* #NOAPP */
 438 0170 C298      		cbi 56-32,2
 439               	.LBE99:
 440               	.LBE98:
 441               	.LM81:
 442 0172 C698      		cbi 56-32,6
 443               	.LM82:
 444 0174 C598      		cbi 56-32,5
 445               	.LM83:
 446 0176 C498      		cbi 56-32,4
 447               	.LM84:
 448 0178 C398      		cbi 56-32,3
 449               	.LM85:
 450 017a 83FD      		sbrc r24,3
 451 017c C69A      		sbi 56-32,6
 452               	.L45:
 453               	.LM86:
 454 017e 82FD      		sbrc r24,2
 455 0180 C59A      		sbi 56-32,5
 456               	.L46:
 457               	.LM87:
 458 0182 81FD      		sbrc r24,1
 459 0184 C49A      		sbi 56-32,4
 460               	.L47:
 461               	.LM88:
 462 0186 80FD      		sbrc r24,0
 463 0188 C39A      		sbi 56-32,3
 464               	.L48:
 465               	.LBB100:
 466               	.LBB101:
 467               	.LM89:
 468 018a C29A      		sbi 56-32,2
 469               	.LM90:
 470               	/* #APP */
 471               	 ;  121 "lcd.c" 1
 472 018c 00C0      		rjmp 1f
 473               	 1:
 474               	 ;  0 "" 2
 475               	.LM91:
 476               	/* #NOAPP */
 477 018e C298      		cbi 56-32,2
 478               	.LBE101:
 479               	.LBE100:
 480               	.LM92:
 481 0190 C39A      		sbi 56-32,3
 482               	.LM93:
 483 0192 C49A      		sbi 56-32,4
 484               	.LM94:
 485 0194 C59A      		sbi 56-32,5
 486               	.LM95:
 487 0196 C69A      		sbi 56-32,6
 488               	/* epilogue start */
 489               	.LM96:
 490 0198 0895      		ret
 491               	.LFE18:
 494               	lcd_read:
 495               	.LFB19:
 496               	.LM97:
 497               	.LVL30:
 498               	/* prologue: function */
 499               	/* frame size = 0 */
 500               	.LM98:
 501 019a 8823      		tst r24
 502 019c 01F0      		breq .L51
 503               	.LM99:
 504 019e C09A      		sbi 56-32,0
 505 01a0 00C0      		rjmp .L52
 506               	.L51:
 507               	.LM100:
 508 01a2 C098      		cbi 56-32,0
 509               	.L52:
 510               	.LM101:
 511 01a4 C19A      		sbi 56-32,1
 512               	.LM102:
 513 01a6 BB98      		cbi 55-32,3
 514               	.LM103:
 515 01a8 BC98      		cbi 55-32,4
 516               	.LM104:
 517 01aa BD98      		cbi 55-32,5
 518               	.LM105:
 519 01ac BE98      		cbi 55-32,6
 520               	.LM106:
 521 01ae C29A      		sbi 56-32,2
 522               	.LM107:
 523               	/* #APP */
 524               	 ;  254 "lcd.c" 1
 525 01b0 00C0      		rjmp 1f
 526               	 1:
 527               	 ;  0 "" 2
 528               	.LM108:
 529               	/* #NOAPP */
 530 01b2 B39B      		sbis 54-32,3
 531 01b4 00C0      		rjmp .L53
 532 01b6 80E1      		ldi r24,lo8(16)
 533               	.LVL31:
 534 01b8 00C0      		rjmp .L54
 535               	.LVL32:
 536               	.L53:
 537 01ba 80E0      		ldi r24,lo8(0)
 538               	.LVL33:
 539               	.L54:
 540               	.LM109:
 541 01bc B499      		sbic 54-32,4
 542 01be 8062      		ori r24,lo8(32)
 543               	.L55:
 544               	.LM110:
 545 01c0 B599      		sbic 54-32,5
 546 01c2 8064      		ori r24,lo8(64)
 547               	.L56:
 548               	.LM111:
 549 01c4 B699      		sbic 54-32,6
 550 01c6 8068      		ori r24,lo8(-128)
 551               	.L57:
 552               	.LM112:
 553 01c8 C298      		cbi 56-32,2
 554               	.LM113:
 555               	/* #APP */
 556               	 ;  262 "lcd.c" 1
 557 01ca 00C0      		rjmp 1f
 558               	 1:
 559               	 ;  0 "" 2
 560               	.LM114:
 561               	/* #NOAPP */
 562 01cc C29A      		sbi 56-32,2
 563               	.LM115:
 564               	/* #APP */
 565               	 ;  266 "lcd.c" 1
 566 01ce 00C0      		rjmp 1f
 567               	 1:
 568               	 ;  0 "" 2
 569               	.LM116:
 570               	/* #NOAPP */
 571 01d0 B399      		sbic 54-32,3
 572 01d2 8160      		ori r24,lo8(1)
 573               	.L58:
 574               	.LM117:
 575 01d4 B499      		sbic 54-32,4
 576 01d6 8260      		ori r24,lo8(2)
 577               	.L59:
 578               	.LM118:
 579 01d8 B599      		sbic 54-32,5
 580 01da 8460      		ori r24,lo8(4)
 581               	.L60:
 582               	.LM119:
 583 01dc B699      		sbic 54-32,6
 584 01de 8860      		ori r24,lo8(8)
 585               	.L61:
 586               	.LM120:
 587 01e0 C298      		cbi 56-32,2
 588               	.LVL34:
 589               	/* epilogue start */
 590               	.LM121:
 591 01e2 0895      		ret
 592               	.LFE19:
 595               	lcd_waitbusy:
 596               	.LFB20:
 597               	.LM122:
 598               	/* prologue: function */
 599               	/* frame size = 0 */
 600               	.L64:
 601               	.LM123:
 602 01e4 80E0      		ldi r24,lo8(0)
 603 01e6 0E94 0000 		call lcd_read
 604 01ea 87FD      		sbrc r24,7
 605 01ec 00C0      		rjmp .L64
 606               	.LBB102:
 607               	.LBB103:
 608               	.LM124:
 609 01ee 82E0      		ldi r24,lo8(2)
 610 01f0 90E0      		ldi r25,hi8(2)
 611               	.LVL35:
 612               	/* #APP */
 613               	 ;  100 "lcd.c" 1
 614 01f2 0197      		1: sbiw r24,1
 615 01f4 01F4      		brne 1b
 616               	 ;  0 "" 2
 617               	/* #NOAPP */
 618               	.LBE103:
 619               	.LBE102:
 620               	.LM125:
 621 01f6 80E0      		ldi r24,lo8(0)
 622               	.LVL36:
 623 01f8 0E94 0000 		call lcd_read
 624               	/* epilogue start */
 625               	.LM126:
 626 01fc 0895      		ret
 627               	.LFE20:
 629               	.global	lcd_command
 631               	lcd_command:
 632               	.LFB22:
 633               	.LM127:
 634               	.LVL37:
 635 01fe 1F93      		push r17
 636               	/* prologue: function */
 637               	/* frame size = 0 */
 638 0200 182F      		mov r17,r24
 639               	.LM128:
 640 0202 0E94 0000 		call lcd_waitbusy
 641               	.LVL38:
 642               	.LM129:
 643 0206 812F      		mov r24,r17
 644 0208 60E0      		ldi r22,lo8(0)
 645 020a 0E94 0000 		call lcd_write
 646               	/* epilogue start */
 647               	.LM130:
 648 020e 1F91      		pop r17
 649               	.LVL39:
 650 0210 0895      		ret
 651               	.LFE22:
 653               	.global	lcd_data
 655               	lcd_data:
 656               	.LFB23:
 657               	.LM131:
 658               	.LVL40:
 659 0212 1F93      		push r17
 660               	/* prologue: function */
 661               	/* frame size = 0 */
 662 0214 182F      		mov r17,r24
 663               	.LM132:
 664 0216 0E94 0000 		call lcd_waitbusy
 665               	.LVL41:
 666               	.LM133:
 667 021a 812F      		mov r24,r17
 668 021c 61E0      		ldi r22,lo8(1)
 669 021e 0E94 0000 		call lcd_write
 670               	/* epilogue start */
 671               	.LM134:
 672 0222 1F91      		pop r17
 673               	.LVL42:
 674 0224 0895      		ret
 675               	.LFE23:
 677               	.global	lcd_gotoxy
 679               	lcd_gotoxy:
 680               	.LFB24:
 681               	.LM135:
 682               	.LVL43:
 683               	/* prologue: function */
 684               	/* frame size = 0 */
 685               	.LM136:
 686 0226 6623      		tst r22
 687 0228 01F4      		brne .L72
 688               	.LM137:
 689 022a 8058      		subi r24,lo8(-(-128))
 690               	.LVL44:
 691 022c 00C0      		rjmp .L75
 692               	.LVL45:
 693               	.L72:
 694               	.LM138:
 695 022e 8054      		subi r24,lo8(-(-64))
 696               	.LVL46:
 697               	.L75:
 698 0230 0E94 0000 		call lcd_command
 699               	.LVL47:
 700 0234 0895      		ret
 701               	.LFE24:
 703               	.global	lcd_getxy
 705               	lcd_getxy:
 706               	.LFB25:
 707               	.LM139:
 708               	/* prologue: function */
 709               	/* frame size = 0 */
 710               	.LM140:
 711 0236 0E94 0000 		call lcd_waitbusy
 712               	.LM141:
 713 023a 90E0      		ldi r25,lo8(0)
 714               	/* epilogue start */
 715 023c 0895      		ret
 716               	.LFE25:
 718               	.global	lcd_clrscr
 720               	lcd_clrscr:
 721               	.LFB26:
 722               	.LM142:
 723               	/* prologue: function */
 724               	/* frame size = 0 */
 725               	.LM143:
 726 023e 81E0      		ldi r24,lo8(1)
 727 0240 0E94 0000 		call lcd_command
 728               	/* epilogue start */
 729               	.LM144:
 730 0244 0895      		ret
 731               	.LFE26:
 733               	.global	lcd_home
 735               	lcd_home:
 736               	.LFB27:
 737               	.LM145:
 738               	/* prologue: function */
 739               	/* frame size = 0 */
 740               	.LM146:
 741 0246 82E0      		ldi r24,lo8(2)
 742 0248 0E94 0000 		call lcd_command
 743               	/* epilogue start */
 744               	.LM147:
 745 024c 0895      		ret
 746               	.LFE27:
 748               	.global	lcd_putc
 750               	lcd_putc:
 751               	.LFB28:
 752               	.LM148:
 753               	.LVL48:
 754 024e 1F93      		push r17
 755               	/* prologue: function */
 756               	/* frame size = 0 */
 757 0250 182F      		mov r17,r24
 758               	.LM149:
 759 0252 0E94 0000 		call lcd_waitbusy
 760               	.LVL49:
 761               	.LM150:
 762 0256 1A30      		cpi r17,lo8(10)
 763 0258 01F4      		brne .L83
 764               	.LBB104:
 765               	.LBB105:
 766               	.LM151:
 767 025a 8034      		cpi r24,lo8(64)
 768               	.LVL50:
 769 025c 00F0      		brlo .L84
 770 025e 80E0      		ldi r24,lo8(0)
 771               	.LVL51:
 772 0260 00C0      		rjmp .L85
 773               	.LVL52:
 774               	.L84:
 775 0262 80E4      		ldi r24,lo8(64)
 776               	.LVL53:
 777               	.L85:
 778               	.LM152:
 779 0264 8058      		subi r24,lo8(-(-128))
 780               	.LVL54:
 781 0266 0E94 0000 		call lcd_command
 782 026a 00C0      		rjmp .L87
 783               	.L83:
 784               	.LBE105:
 785               	.LBE104:
 786               	.LM153:
 787 026c 812F      		mov r24,r17
 788 026e 61E0      		ldi r22,lo8(1)
 789 0270 0E94 0000 		call lcd_write
 790               	.L87:
 791               	/* epilogue start */
 792               	.LM154:
 793 0274 1F91      		pop r17
 794               	.LVL55:
 795 0276 0895      		ret
 796               	.LFE28:
 798               	.global	lcd_puts
 800               	lcd_puts:
 801               	.LFB29:
 802               	.LM155:
 803               	.LVL56:
 804 0278 CF93      		push r28
 805 027a DF93      		push r29
 806               	/* prologue: function */
 807               	/* frame size = 0 */
 808 027c EC01      		movw r28,r24
 809 027e 00C0      		rjmp .L89
 810               	.LVL57:
 811               	.L90:
 812               	.LM156:
 813 0280 0E94 0000 		call lcd_putc
 814               	.LVL58:
 815               	.L89:
 816               	.LM157:
 817 0284 8991      		ld r24,Y+
 818               	.LVL59:
 819 0286 8823      		tst r24
 820 0288 01F4      		brne .L90
 821               	/* epilogue start */
 822               	.LM158:
 823 028a DF91      		pop r29
 824 028c CF91      		pop r28
 825               	.LVL60:
 826 028e 0895      		ret
 827               	.LFE29:
 829               	.global	lcd_puts_p
 831               	lcd_puts_p:
 832               	.LFB30:
 833               	.LM159:
 834               	.LVL61:
 835 0290 CF93      		push r28
 836 0292 DF93      		push r29
 837               	/* prologue: function */
 838               	/* frame size = 0 */
 839 0294 EC01      		movw r28,r24
 840 0296 00C0      		rjmp .L93
 841               	.LVL62:
 842               	.L94:
 843               	.LM160:
 844 0298 0E94 0000 		call lcd_putc
 845               	.LVL63:
 846               	.L93:
 847 029c FE01      		movw r30,r28
 848               	.LVL64:
 849               	.LBB106:
 850               	.LM161:
 851 029e 2196      		adiw r28,1
 852               	/* #APP */
 853               	 ;  506 "lcd.c" 1
 854 02a0 8491      		lpm r24, Z
 855               		
 856               	 ;  0 "" 2
 857               	.LVL65:
 858               	/* #NOAPP */
 859               	.LBE106:
 860 02a2 8823      		tst r24
 861 02a4 01F4      		brne .L94
 862               	/* epilogue start */
 863               	.LM162:
 864 02a6 DF91      		pop r29
 865 02a8 CF91      		pop r28
 866               	.LVL66:
 867 02aa 0895      		ret
 868               	.LFE30:
 870               	.global	lcd_init
 872               	lcd_init:
 873               	.LFB31:
 874               	.LM163:
 875               	.LVL67:
 876 02ac 1F93      		push r17
 877               	/* prologue: function */
 878               	/* frame size = 0 */
 879 02ae 182F      		mov r17,r24
 880               	.LM164:
 881 02b0 B89A      		sbi 55-32,0
 882               	.LM165:
 883 02b2 B99A      		sbi 55-32,1
 884               	.LM166:
 885 02b4 BA9A      		sbi 55-32,2
 886               	.LM167:
 887 02b6 BB9A      		sbi 55-32,3
 888               	.LM168:
 889 02b8 BC9A      		sbi 55-32,4
 890               	.LM169:
 891 02ba BD9A      		sbi 55-32,5
 892               	.LM170:
 893 02bc BE9A      		sbi 55-32,6
 894               	.LBB107:
 895               	.LBB108:
 896               	.LM171:
 897 02be 80E8      		ldi r24,lo8(16000)
 898 02c0 9EE3      		ldi r25,hi8(16000)
 899               	.LVL68:
 900               	/* #APP */
 901               	 ;  100 "lcd.c" 1
 902 02c2 0197      		1: sbiw r24,1
 903 02c4 01F4      		brne 1b
 904               	 ;  0 "" 2
 905               	/* #NOAPP */
 906               	.LBE108:
 907               	.LBE107:
 908               	.LM172:
 909 02c6 C49A      		sbi 56-32,4
 910               	.LM173:
 911 02c8 C39A      		sbi 56-32,3
 912               	.LBB109:
 913               	.LBB110:
 914               	.LM174:
 915 02ca C29A      		sbi 56-32,2
 916               	.LM175:
 917               	/* #APP */
 918               	 ;  121 "lcd.c" 1
 919 02cc 00C0      		rjmp 1f
 920               	 1:
 921               	 ;  0 "" 2
 922               	.LM176:
 923               	/* #NOAPP */
 924 02ce C298      		cbi 56-32,2
 925               	.LBE110:
 926               	.LBE109:
 927               	.LBB111:
 928               	.LBB112:
 929               	.LM177:
 930 02d0 80E8      		ldi r24,lo8(4992)
 931 02d2 93E1      		ldi r25,hi8(4992)
 932               	.LVL69:
 933               	/* #APP */
 934               	 ;  100 "lcd.c" 1
 935 02d4 0197      		1: sbiw r24,1
 936 02d6 01F4      		brne 1b
 937               	 ;  0 "" 2
 938               	/* #NOAPP */
 939               	.LBE112:
 940               	.LBE111:
 941               	.LBB113:
 942               	.LBB114:
 943               	.LM178:
 944 02d8 C29A      		sbi 56-32,2
 945               	.LM179:
 946               	/* #APP */
 947               	 ;  121 "lcd.c" 1
 948 02da 00C0      		rjmp 1f
 949               	 1:
 950               	 ;  0 "" 2
 951               	.LM180:
 952               	/* #NOAPP */
 953 02dc C298      		cbi 56-32,2
 954               	.LBE114:
 955               	.LBE113:
 956               	.LBB115:
 957               	.LBB116:
 958               	.LM181:
 959 02de 80E4      		ldi r24,lo8(64)
 960 02e0 90E0      		ldi r25,hi8(64)
 961               	.LVL70:
 962 02e2 FC01      		movw r30,r24
 963               	.LVL71:
 964               	/* #APP */
 965               	 ;  100 "lcd.c" 1
 966 02e4 3197      		1: sbiw r30,1
 967 02e6 01F4      		brne 1b
 968               	 ;  0 "" 2
 969               	/* #NOAPP */
 970               	.LBE116:
 971               	.LBE115:
 972               	.LBB117:
 973               	.LBB118:
 974               	.LM182:
 975 02e8 C29A      		sbi 56-32,2
 976               	.LM183:
 977               	/* #APP */
 978               	 ;  121 "lcd.c" 1
 979 02ea 00C0      		rjmp 1f
 980               	 1:
 981               	 ;  0 "" 2
 982               	.LM184:
 983               	/* #NOAPP */
 984 02ec C298      		cbi 56-32,2
 985               	.LBE118:
 986               	.LBE117:
 987               	.LBB119:
 988               	.LBB120:
 989               	.LM185:
 990 02ee FC01      		movw r30,r24
 991               	.LVL72:
 992               	/* #APP */
 993               	 ;  100 "lcd.c" 1
 994 02f0 3197      		1: sbiw r30,1
 995 02f2 01F4      		brne 1b
 996               	 ;  0 "" 2
 997               	/* #NOAPP */
 998               	.LBE120:
 999               	.LBE119:
 1000               	.LM186:
 1001 02f4 C398      		cbi 56-32,3
 1002               	.LBB121:
 1003               	.LBB122:
 1004               	.LM187:
 1005 02f6 C29A      		sbi 56-32,2
 1006               	.LM188:
 1007               	/* #APP */
 1008               	 ;  121 "lcd.c" 1
 1009 02f8 00C0      		rjmp 1f
 1010               	 1:
 1011               	 ;  0 "" 2
 1012               	.LM189:
 1013               	/* #NOAPP */
 1014 02fa C298      		cbi 56-32,2
 1015               	.LBE122:
 1016               	.LBE121:
 1017               	.LBB123:
 1018               	.LBB124:
 1019               	.LM190:
 1020               	/* #APP */
 1021               	 ;  100 "lcd.c" 1
 1022 02fc 0197      		1: sbiw r24,1
 1023 02fe 01F4      		brne 1b
 1024               	 ;  0 "" 2
 1025               	.LVL73:
 1026               	/* #NOAPP */
 1027               	.LBE124:
 1028               	.LBE123:
 1029               	.LM191:
 1030 0300 88E2      		ldi r24,lo8(40)
 1031               	.LVL74:
 1032 0302 0E94 0000 		call lcd_command
 1033               	.LVL75:
 1034               	.LM192:
 1035 0306 88E0      		ldi r24,lo8(8)
 1036 0308 0E94 0000 		call lcd_command
 1037               	.LM193:
 1038 030c 0E94 0000 		call lcd_clrscr
 1039               	.LM194:
 1040 0310 86E0      		ldi r24,lo8(6)
 1041 0312 0E94 0000 		call lcd_command
 1042               	.LM195:
 1043 0316 812F      		mov r24,r17
 1044 0318 0E94 0000 		call lcd_command
 1045               	/* epilogue start */
 1046               	.LM196:
 1047 031c 1F91      		pop r17
 1048               	.LVL76:
 1049 031e 0895      		ret
 1050               	.LFE31:
 1052               	.global	EEPROMread
 1054               	EEPROMread:
 1055               	.LFB32:
 1056               	.LM197:
 1057               	/* prologue: function */
 1058               	/* frame size = 0 */
 1059               	.LVL77:
 1060               	.L99:
 1061               	.LM198:
 1062 0320 E199      		sbic 60-32,1
 1063 0322 00C0      		rjmp .L99
 1064               	.LM199:
 1065 0324 9FBB      		out (62)+1-32,r25
 1066 0326 8EBB      		out 62-32,r24
 1067               	.LM200:
 1068 0328 E09A      		sbi 60-32,0
 1069               	.LM201:
 1070 032a 8DB3      		in r24,61-32
 1071               	.LVL78:
 1072               	/* epilogue start */
 1073               	.LM202:
 1074 032c 0895      		ret
 1075               	.LFE32:
 1077               	.global	EEPROMwrite
 1079               	EEPROMwrite:
 1080               	.LFB33:
 1081               	.LM203:
 1082               	/* prologue: function */
 1083               	/* frame size = 0 */
 1084               	.LVL79:
 1085               	.L103:
 1086               	.LM204:
 1087 032e E199      		sbic 60-32,1
 1088 0330 00C0      		rjmp .L103
 1089               	.LM205:
 1090 0332 9FBB      		out (62)+1-32,r25
 1091 0334 8EBB      		out 62-32,r24
 1092               	.LM206:
 1093 0336 6DBB      		out 61-32,r22
 1094               	.LM207:
 1095 0338 E29A      		sbi 60-32,2
 1096               	.LM208:
 1097 033a E19A      		sbi 60-32,1
 1098               	/* epilogue start */
 1099               	.LM209:
 1100 033c 0895      		ret
 1101               	.LFE33:
 1103               	.global	decleration
 1105               	decleration:
 1106               	.LFB34:
 1107               	.LM210:
 1108               	/* prologue: function */
 1109               	/* frame size = 0 */
 1110               	.LM211:
 1111 033e A498      		cbi 52-32,4
 1112               	.LM212:
 1113 0340 A598      		cbi 52-32,5
 1114               	.LM213:
 1115 0342 A698      		cbi 52-32,6
 1116               	.LM214:
 1117 0344 A798      		cbi 52-32,7
 1118               	.LM215:
 1119 0346 A09A      		sbi 52-32,0
 1120               	.LM216:
 1121 0348 A19A      		sbi 52-32,1
 1122               	.LM217:
 1123 034a A29A      		sbi 52-32,2
 1124               	.LM218:
 1125 034c A39A      		sbi 52-32,3
 1126               	.LM219:
 1127 034e AC9A      		sbi 53-32,4
 1128               	.LM220:
 1129 0350 AD9A      		sbi 53-32,5
 1130               	.LM221:
 1131 0352 AE9A      		sbi 53-32,6
 1132               	.LM222:
 1133 0354 AF9A      		sbi 53-32,7
 1134               	.LM223:
 1135 0356 D898      		cbi 59-32,0
 1136               	.LM224:
 1137 0358 D89A      		sbi 59-32,0
 1138               	/* epilogue start */
 1139               	.LM225:
 1140 035a 0895      		ret
 1141               	.LFE34:
 1143               		.data
 1144               	.LC0:
 1145 0000 4556 4D20 		.string	"EVM MACHINE"
 1145      4D41 4348 
 1145      494E 4500 
 1146               	.LC1:
 1147 000c 0A0D 00   		.string	"\n\r"
 1148               	.LC2:
 1149 000f 424A 503D 		.string	"BJP="
 1149      00
 1150               	.LC3:
 1151 0014 4253 503D 		.string	"BSP="
 1151      00
 1152               	.LC4:
 1153 0019 4141 503D 		.string	"AAP="
 1153      00
 1154               	.LC5:
 1155 001e 434F 4E47 		.string	"CONG="
 1155      3D00 
 1156               		.text
 1157               	.global	main
 1159               	main:
 1160               	.LFB35:
 1161               	.LM226:
 1162 035c 4F92      		push r4
 1163 035e 5F92      		push r5
 1164 0360 6F92      		push r6
 1165 0362 7F92      		push r7
 1166 0364 8F92      		push r8
 1167 0366 9F92      		push r9
 1168 0368 AF92      		push r10
 1169 036a BF92      		push r11
 1170 036c CF92      		push r12
 1171 036e DF92      		push r13
 1172 0370 EF92      		push r14
 1173 0372 FF92      		push r15
 1174 0374 0F93      		push r16
 1175 0376 1F93      		push r17
 1176 0378 DF93      		push r29
 1177 037a CF93      		push r28
 1178 037c CDB7      		in r28,__SP_L__
 1179 037e DEB7      		in r29,__SP_H__
 1180 0380 A897      		sbiw r28,40
 1181 0382 0FB6      		in __tmp_reg__,__SREG__
 1182 0384 F894      		cli
 1183 0386 DEBF      		out __SP_H__,r29
 1184 0388 0FBE      		out __SREG__,__tmp_reg__
 1185 038a CDBF      		out __SP_L__,r28
 1186               	/* prologue: function */
 1187               	/* frame size = 40 */
 1188               	.LM227:
 1189 038c 8AE0      		ldi r24,lo8(10)
 1190 038e FE01      		movw r30,r28
 1191 0390 3196      		adiw r30,1
 1192 0392 DF01      		movw r26,r30
 1193 0394 982F      		mov r25,r24
 1194 0396 1D92      		st X+,__zero_reg__
 1195 0398 9A95      	        dec r25
 1196 039a 01F4      		brne .-6
 1197 039c FE01      		movw r30,r28
 1198 039e 3B96      		adiw r30,11
 1199 03a0 DF01      		movw r26,r30
 1200 03a2 982F      		mov r25,r24
 1201 03a4 1D92      		st X+,__zero_reg__
 1202 03a6 9A95      	        dec r25
 1203 03a8 01F4      		brne .-6
 1204 03aa FE01      		movw r30,r28
 1205 03ac 7596      		adiw r30,21
 1206 03ae DF01      		movw r26,r30
 1207 03b0 982F      		mov r25,r24
 1208 03b2 1D92      		st X+,__zero_reg__
 1209 03b4 9A95      	        dec r25
 1210 03b6 01F4      		brne .-6
 1211 03b8 FE01      		movw r30,r28
 1212 03ba 7F96      		adiw r30,31
 1213 03bc DF01      		movw r26,r30
 1214 03be 1D92      		st X+,__zero_reg__
 1215 03c0 8A95      	        dec r24
 1216 03c2 01F4      		brne .-6
 1217               	.LM228:
 1218 03c4 8FE5      		ldi r24,lo8(95)
 1219 03c6 90E0      		ldi r25,hi8(95)
 1220 03c8 0E94 0000 		call uart_init
 1221               	.LM229:
 1222               	/* #APP */
 1223               	 ;  46 "EVM.c" 1
 1224 03cc 7894      		sei
 1225               	 ;  0 "" 2
 1226               	.LM230:
 1227               	/* #NOAPP */
 1228 03ce 0E94 0000 		call decleration
 1229               	.L109:
 1230               	.LBB125:
 1231               	.LBB126:
 1232               	.LM231:
 1233 03d2 E199      		sbic 60-32,1
 1234 03d4 00C0      		rjmp .L109
 1235               	.LM232:
 1236 03d6 82E0      		ldi r24,lo8(2)
 1237 03d8 90E0      		ldi r25,hi8(2)
 1238 03da 9FBB      		out (62)+1-32,r25
 1239 03dc 8EBB      		out 62-32,r24
 1240               	.LM233:
 1241 03de E09A      		sbi 60-32,0
 1242               	.LM234:
 1243 03e0 EDB2      		in r14,61-32
 1244               	.LVL80:
 1245               	.L110:
 1246               	.LBE126:
 1247               	.LBE125:
 1248               	.LBB127:
 1249               	.LBB128:
 1250               	.LM235:
 1251 03e2 E199      		sbic 60-32,1
 1252 03e4 00C0      		rjmp .L110
 1253               	.LM236:
 1254 03e6 83E0      		ldi r24,lo8(3)
 1255 03e8 90E0      		ldi r25,hi8(3)
 1256 03ea 9FBB      		out (62)+1-32,r25
 1257 03ec 8EBB      		out 62-32,r24
 1258               	.LM237:
 1259 03ee E09A      		sbi 60-32,0
 1260               	.LM238:
 1261 03f0 FDB2      		in r15,61-32
 1262               	.LVL81:
 1263               	.L111:
 1264               	.LBE128:
 1265               	.LBE127:
 1266               	.LBB129:
 1267               	.LBB130:
 1268               	.LM239:
 1269 03f2 E199      		sbic 60-32,1
 1270 03f4 00C0      		rjmp .L111
 1271               	.LM240:
 1272 03f6 84E0      		ldi r24,lo8(4)
 1273 03f8 90E0      		ldi r25,hi8(4)
 1274 03fa 9FBB      		out (62)+1-32,r25
 1275 03fc 8EBB      		out 62-32,r24
 1276               	.LM241:
 1277 03fe E09A      		sbi 60-32,0
 1278               	.LM242:
 1279 0400 0DB3      		in r16,61-32
 1280               	.LVL82:
 1281               	.L112:
 1282               	.LBE130:
 1283               	.LBE129:
 1284               	.LBB131:
 1285               	.LBB132:
 1286               	.LM243:
 1287 0402 E199      		sbic 60-32,1
 1288 0404 00C0      		rjmp .L112
 1289               	.LM244:
 1290 0406 85E0      		ldi r24,lo8(5)
 1291 0408 90E0      		ldi r25,hi8(5)
 1292 040a 9FBB      		out (62)+1-32,r25
 1293 040c 8EBB      		out 62-32,r24
 1294               	.LM245:
 1295 040e E09A      		sbi 60-32,0
 1296               	.LM246:
 1297 0410 1DB3      		in r17,61-32
 1298               	.LVL83:
 1299               	.LBE132:
 1300               	.LBE131:
 1301               	.LM247:
 1302 0412 80E0      		ldi r24,lo8(.LC0)
 1303 0414 90E0      		ldi r25,hi8(.LC0)
 1304 0416 0E94 0000 		call uart_puts
 1305               	.LM248:
 1306 041a 80E0      		ldi r24,lo8(.LC1)
 1307 041c 90E0      		ldi r25,hi8(.LC1)
 1308 041e 0E94 0000 		call uart_puts
 1309               	.LBB133:
 1310               	.LBB134:
 1311               	.LBB135:
 1312               	.LBB136:
 1313               	.LM249:
 1314 0422 30E7      		ldi r19,lo8(368)
 1315 0424 C32E      		mov r12,r19
 1316 0426 31E0      		ldi r19,hi8(368)
 1317 0428 D32E      		mov r13,r19
 1318               	.LBE136:
 1319               	.LBE135:
 1320               	.LBE134:
 1321               	.LBE133:
 1322               	.LM250:
 1323 042a 2E01      		movw r4,r28
 1324 042c 0894      		sec
 1325 042e 411C      		adc r4,__zero_reg__
 1326 0430 511C      		adc r5,__zero_reg__
 1327               	.LM251:
 1328 0432 2BE0      		ldi r18,lo8(11)
 1329 0434 622E      		mov r6,r18
 1330 0436 712C      		mov r7,__zero_reg__
 1331 0438 6C0E      		add r6,r28
 1332 043a 7D1E      		adc r7,r29
 1333               	.LM252:
 1334 043c 95E1      		ldi r25,lo8(21)
 1335 043e 892E      		mov r8,r25
 1336 0440 912C      		mov r9,__zero_reg__
 1337 0442 8C0E      		add r8,r28
 1338 0444 9D1E      		adc r9,r29
 1339               	.LM253:
 1340 0446 8FE1      		ldi r24,lo8(31)
 1341 0448 A82E      		mov r10,r24
 1342 044a B12C      		mov r11,__zero_reg__
 1343 044c AC0E      		add r10,r28
 1344 044e BD1E      		adc r11,r29
 1345               	.LVL84:
 1346               	.L145:
 1347               	.LM254:
 1348 0450 9C99      		sbic 51-32,4
 1349 0452 00C0      		rjmp .L113
 1350               	.LM255:
 1351 0454 E394      		inc r14
 1352               	.LVL85:
 1353               	.LM256:
 1354 0456 A89A      		sbi 53-32,0
 1355               	.LM257:
 1356 0458 80E0      		ldi r24,lo8(.LC2)
 1357 045a 90E0      		ldi r25,hi8(.LC2)
 1358 045c 0E94 0000 		call uart_puts
 1359               	.LM258:
 1360 0460 82E0      		ldi r24,lo8(2)
 1361 0462 90E0      		ldi r25,hi8(2)
 1362 0464 6E2D      		mov r22,r14
 1363 0466 0E94 0000 		call EEPROMwrite
 1364 046a 88EB      		ldi r24,lo8(3000)
 1365 046c 9BE0      		ldi r25,hi8(3000)
 1366               	.LVL86:
 1367               	.L114:
 1368               	.LBB140:
 1369               	.LBB139:
 1370               	.LBB138:
 1371               	.LBB137:
 1372               	.LM259:
 1373 046e F601      		movw r30,r12
 1374               	/* #APP */
 1375               	 ;  105 "c:/winavr-20100110/lib/gcc/../../avr/include/util/delay_basic.h" 1
 1376 0470 3197      		1: sbiw r30,1
 1377 0472 01F4      		brne 1b
 1378               	 ;  0 "" 2
 1379               	/* #NOAPP */
 1380               	.LBE137:
 1381               	.LBE138:
 1382               	.LM260:
 1383 0474 0197      		sbiw r24,1
 1384               	.LM261:
 1385 0476 01F4      		brne .L114
 1386               	.L131:
 1387               	.LBE139:
 1388               	.LBE140:
 1389               	.LBB141:
 1390               	.LBB142:
 1391               	.LM262:
 1392 0478 E199      		sbic 60-32,1
 1393 047a 00C0      		rjmp .L131
 1394               	.LM263:
 1395 047c 82E0      		ldi r24,lo8(2)
 1396 047e 90E0      		ldi r25,hi8(2)
 1397               	.LVL87:
 1398 0480 9FBB      		out (62)+1-32,r25
 1399 0482 8EBB      		out 62-32,r24
 1400               	.LM264:
 1401 0484 E09A      		sbi 60-32,0
 1402               	.LM265:
 1403 0486 8DB3      		in r24,61-32
 1404               	.LVL88:
 1405               	.LBE142:
 1406               	.LBE141:
 1407               	.LM266:
 1408 0488 90E0      		ldi r25,lo8(0)
 1409 048a B201      		movw r22,r4
 1410 048c 4AE0      		ldi r20,lo8(10)
 1411 048e 50E0      		ldi r21,hi8(10)
 1412 0490 0E94 0000 		call itoa
 1413               	.LVL89:
 1414               	.LM267:
 1415 0494 C201      		movw r24,r4
 1416 0496 0E94 0000 		call uart_puts
 1417               	.LM268:
 1418 049a 80E0      		ldi r24,lo8(.LC1)
 1419 049c 90E0      		ldi r25,hi8(.LC1)
 1420 049e 0E94 0000 		call uart_puts
 1421               	.LVL90:
 1422               	.L113:
 1423               	.LM269:
 1424 04a2 9D99      		sbic 51-32,5
 1425 04a4 00C0      		rjmp .L116
 1426               	.LM270:
 1427 04a6 F394      		inc r15
 1428               	.LVL91:
 1429               	.LM271:
 1430 04a8 A99A      		sbi 53-32,1
 1431               	.LM272:
 1432 04aa 80E0      		ldi r24,lo8(.LC3)
 1433 04ac 90E0      		ldi r25,hi8(.LC3)
 1434 04ae 0E94 0000 		call uart_puts
 1435               	.LM273:
 1436 04b2 83E0      		ldi r24,lo8(3)
 1437 04b4 90E0      		ldi r25,hi8(3)
 1438 04b6 6F2D      		mov r22,r15
 1439 04b8 0E94 0000 		call EEPROMwrite
 1440 04bc 88EB      		ldi r24,lo8(3000)
 1441 04be 9BE0      		ldi r25,hi8(3000)
 1442               	.LVL92:
 1443               	.L117:
 1444               	.LBB143:
 1445               	.LBB144:
 1446               	.LBB145:
 1447               	.LBB146:
 1448               	.LM274:
 1449 04c0 F601      		movw r30,r12
 1450               	/* #APP */
 1451               	 ;  105 "c:/winavr-20100110/lib/gcc/../../avr/include/util/delay_basic.h" 1
 1452 04c2 3197      		1: sbiw r30,1
 1453 04c4 01F4      		brne 1b
 1454               	 ;  0 "" 2
 1455               	/* #NOAPP */
 1456               	.LBE146:
 1457               	.LBE145:
 1458               	.LM275:
 1459 04c6 0197      		sbiw r24,1
 1460               	.LM276:
 1461 04c8 01F4      		brne .L117
 1462               	.L130:
 1463               	.LBE144:
 1464               	.LBE143:
 1465               	.LBB147:
 1466               	.LBB148:
 1467               	.LM277:
 1468 04ca E199      		sbic 60-32,1
 1469 04cc 00C0      		rjmp .L130
 1470               	.LM278:
 1471 04ce 83E0      		ldi r24,lo8(3)
 1472 04d0 90E0      		ldi r25,hi8(3)
 1473               	.LVL93:
 1474 04d2 9FBB      		out (62)+1-32,r25
 1475 04d4 8EBB      		out 62-32,r24
 1476               	.LM279:
 1477 04d6 E09A      		sbi 60-32,0
 1478               	.LM280:
 1479 04d8 8DB3      		in r24,61-32
 1480               	.LVL94:
 1481               	.LBE148:
 1482               	.LBE147:
 1483               	.LM281:
 1484 04da 90E0      		ldi r25,lo8(0)
 1485 04dc B301      		movw r22,r6
 1486 04de 4AE0      		ldi r20,lo8(10)
 1487 04e0 50E0      		ldi r21,hi8(10)
 1488 04e2 0E94 0000 		call itoa
 1489               	.LVL95:
 1490               	.LM282:
 1491 04e6 C301      		movw r24,r6
 1492 04e8 0E94 0000 		call uart_puts
 1493               	.LM283:
 1494 04ec 80E0      		ldi r24,lo8(.LC1)
 1495 04ee 90E0      		ldi r25,hi8(.LC1)
 1496 04f0 0E94 0000 		call uart_puts
 1497               	.LVL96:
 1498               	.L116:
 1499               	.LM284:
 1500 04f4 9E99      		sbic 51-32,6
 1501 04f6 00C0      		rjmp .L119
 1502               	.LM285:
 1503 04f8 0F5F      		subi r16,lo8(-(1))
 1504               	.LVL97:
 1505               	.LM286:
 1506 04fa AA9A      		sbi 53-32,2
 1507               	.LM287:
 1508 04fc 80E0      		ldi r24,lo8(.LC4)
 1509 04fe 90E0      		ldi r25,hi8(.LC4)
 1510 0500 0E94 0000 		call uart_puts
 1511               	.LM288:
 1512 0504 84E0      		ldi r24,lo8(4)
 1513 0506 90E0      		ldi r25,hi8(4)
 1514 0508 602F      		mov r22,r16
 1515 050a 0E94 0000 		call EEPROMwrite
 1516 050e 88EB      		ldi r24,lo8(3000)
 1517 0510 9BE0      		ldi r25,hi8(3000)
 1518               	.LVL98:
 1519               	.L120:
 1520               	.LBB149:
 1521               	.LBB150:
 1522               	.LBB151:
 1523               	.LBB152:
 1524               	.LM289:
 1525 0512 F601      		movw r30,r12
 1526               	/* #APP */
 1527               	 ;  105 "c:/winavr-20100110/lib/gcc/../../avr/include/util/delay_basic.h" 1
 1528 0514 3197      		1: sbiw r30,1
 1529 0516 01F4      		brne 1b
 1530               	 ;  0 "" 2
 1531               	/* #NOAPP */
 1532               	.LBE152:
 1533               	.LBE151:
 1534               	.LM290:
 1535 0518 0197      		sbiw r24,1
 1536               	.LM291:
 1537 051a 01F4      		brne .L120
 1538               	.L129:
 1539               	.LBE150:
 1540               	.LBE149:
 1541               	.LBB153:
 1542               	.LBB154:
 1543               	.LM292:
 1544 051c E199      		sbic 60-32,1
 1545 051e 00C0      		rjmp .L129
 1546               	.LM293:
 1547 0520 84E0      		ldi r24,lo8(4)
 1548 0522 90E0      		ldi r25,hi8(4)
 1549               	.LVL99:
 1550 0524 9FBB      		out (62)+1-32,r25
 1551 0526 8EBB      		out 62-32,r24
 1552               	.LM294:
 1553 0528 E09A      		sbi 60-32,0
 1554               	.LM295:
 1555 052a 8DB3      		in r24,61-32
 1556               	.LVL100:
 1557               	.LBE154:
 1558               	.LBE153:
 1559               	.LM296:
 1560 052c 90E0      		ldi r25,lo8(0)
 1561 052e B401      		movw r22,r8
 1562 0530 4AE0      		ldi r20,lo8(10)
 1563 0532 50E0      		ldi r21,hi8(10)
 1564 0534 0E94 0000 		call itoa
 1565               	.LVL101:
 1566               	.LM297:
 1567 0538 C401      		movw r24,r8
 1568 053a 0E94 0000 		call uart_puts
 1569               	.LM298:
 1570 053e 80E0      		ldi r24,lo8(.LC1)
 1571 0540 90E0      		ldi r25,hi8(.LC1)
 1572 0542 0E94 0000 		call uart_puts
 1573               	.LVL102:
 1574               	.L119:
 1575               	.LM299:
 1576 0546 9F99      		sbic 51-32,7
 1577 0548 00C0      		rjmp .L122
 1578               	.LM300:
 1579 054a 1F5F      		subi r17,lo8(-(1))
 1580               	.LVL103:
 1581               	.LM301:
 1582 054c AB9A      		sbi 53-32,3
 1583               	.LM302:
 1584 054e 80E0      		ldi r24,lo8(.LC5)
 1585 0550 90E0      		ldi r25,hi8(.LC5)
 1586 0552 0E94 0000 		call uart_puts
 1587               	.LM303:
 1588 0556 85E0      		ldi r24,lo8(5)
 1589 0558 90E0      		ldi r25,hi8(5)
 1590 055a 612F      		mov r22,r17
 1591 055c 0E94 0000 		call EEPROMwrite
 1592 0560 88EB      		ldi r24,lo8(3000)
 1593 0562 9BE0      		ldi r25,hi8(3000)
 1594               	.LVL104:
 1595               	.L123:
 1596               	.LBB155:
 1597               	.LBB156:
 1598               	.LBB157:
 1599               	.LBB158:
 1600               	.LM304:
 1601 0564 F601      		movw r30,r12
 1602               	.LVL105:
 1603               	/* #APP */
 1604               	 ;  105 "c:/winavr-20100110/lib/gcc/../../avr/include/util/delay_basic.h" 1
 1605 0566 3197      		1: sbiw r30,1
 1606 0568 01F4      		brne 1b
 1607               	 ;  0 "" 2
 1608               	/* #NOAPP */
 1609               	.LBE158:
 1610               	.LBE157:
 1611               	.LM305:
 1612 056a 0197      		sbiw r24,1
 1613               	.LM306:
 1614 056c 01F4      		brne .L123
 1615               	.L128:
 1616               	.LBE156:
 1617               	.LBE155:
 1618               	.LBB159:
 1619               	.LBB160:
 1620               	.LM307:
 1621 056e E199      		sbic 60-32,1
 1622 0570 00C0      		rjmp .L128
 1623               	.LM308:
 1624 0572 85E0      		ldi r24,lo8(5)
 1625 0574 90E0      		ldi r25,hi8(5)
 1626               	.LVL106:
 1627 0576 9FBB      		out (62)+1-32,r25
 1628 0578 8EBB      		out 62-32,r24
 1629               	.LM309:
 1630 057a E09A      		sbi 60-32,0
 1631               	.LM310:
 1632 057c 8DB3      		in r24,61-32
 1633               	.LVL107:
 1634               	.LBE160:
 1635               	.LBE159:
 1636               	.LM311:
 1637 057e 90E0      		ldi r25,lo8(0)
 1638 0580 B501      		movw r22,r10
 1639 0582 4AE0      		ldi r20,lo8(10)
 1640 0584 50E0      		ldi r21,hi8(10)
 1641 0586 0E94 0000 		call itoa
 1642               	.LVL108:
 1643               	.LM312:
 1644 058a C501      		movw r24,r10
 1645 058c 0E94 0000 		call uart_puts
 1646               	.LM313:
 1647 0590 80E0      		ldi r24,lo8(.LC1)
 1648 0592 90E0      		ldi r25,hi8(.LC1)
 1649 0594 0E94 0000 		call uart_puts
 1650               	.LVL109:
 1651               	.L122:
 1652               	.LM314:
 1653 0598 C899      		sbic 57-32,0
 1654 059a 00C0      		rjmp .L145
 1655               	.LM315:
 1656 059c 82E0      		ldi r24,lo8(2)
 1657 059e 90E0      		ldi r25,hi8(2)
 1658 05a0 60E0      		ldi r22,lo8(0)
 1659 05a2 0E94 0000 		call EEPROMwrite
 1660               	.LM316:
 1661 05a6 83E0      		ldi r24,lo8(3)
 1662 05a8 90E0      		ldi r25,hi8(3)
 1663 05aa 60E0      		ldi r22,lo8(0)
 1664 05ac 0E94 0000 		call EEPROMwrite
 1665               	.LM317:
 1666 05b0 84E0      		ldi r24,lo8(4)
 1667 05b2 90E0      		ldi r25,hi8(4)
 1668 05b4 60E0      		ldi r22,lo8(0)
 1669 05b6 0E94 0000 		call EEPROMwrite
 1670               	.LM318:
 1671 05ba 85E0      		ldi r24,lo8(5)
 1672 05bc 90E0      		ldi r25,hi8(5)
 1673 05be 60E0      		ldi r22,lo8(0)
 1674 05c0 0E94 0000 		call EEPROMwrite
 1675 05c4 10E0      		ldi r17,lo8(0)
 1676               	.LVL110:
 1677 05c6 00E0      		ldi r16,lo8(0)
 1678               	.LVL111:
 1679 05c8 FF24      		clr r15
 1680               	.LVL112:
 1681 05ca EE24      		clr r14
 1682               	.LVL113:
 1683 05cc 00C0      		rjmp .L145
 1684               	.LFE35:
 1686               		.lcomm UART_TxBuf,32
 1687               		.lcomm UART_RxBuf,256
 1688               		.lcomm UART_TxHead,1
 1689               		.lcomm UART_TxTail,1
 1690               		.lcomm UART_RxHead,1
 1691               		.lcomm UART_RxTail,1
 1692               		.lcomm UART_LastRxError,1
 1917               	.Letext0:
DEFINED SYMBOLS
                            *ABS*:00000000 EVM.c
C:\Users\ADMINI~1\AppData\Local\Temp/ccM1g11j.s:2      *ABS*:0000003f __SREG__
C:\Users\ADMINI~1\AppData\Local\Temp/ccM1g11j.s:3      *ABS*:0000003e __SP_H__
C:\Users\ADMINI~1\AppData\Local\Temp/ccM1g11j.s:4      *ABS*:0000003d __SP_L__
C:\Users\ADMINI~1\AppData\Local\Temp/ccM1g11j.s:5      *ABS*:00000034 __CCP__
C:\Users\ADMINI~1\AppData\Local\Temp/ccM1g11j.s:6      *ABS*:00000000 __tmp_reg__
C:\Users\ADMINI~1\AppData\Local\Temp/ccM1g11j.s:7      *ABS*:00000001 __zero_reg__
C:\Users\ADMINI~1\AppData\Local\Temp/ccM1g11j.s:18     .text:00000000 __vector_11
C:\Users\ADMINI~1\AppData\Local\Temp/ccM1g11j.s:1689   .bss:00000122 UART_RxHead
C:\Users\ADMINI~1\AppData\Local\Temp/ccM1g11j.s:1690   .bss:00000123 UART_RxTail
C:\Users\ADMINI~1\AppData\Local\Temp/ccM1g11j.s:1686   .bss:00000020 UART_RxBuf
C:\Users\ADMINI~1\AppData\Local\Temp/ccM1g11j.s:1691   .bss:00000124 UART_LastRxError
C:\Users\ADMINI~1\AppData\Local\Temp/ccM1g11j.s:88     .text:00000052 __vector_12
C:\Users\ADMINI~1\AppData\Local\Temp/ccM1g11j.s:1687   .bss:00000120 UART_TxHead
C:\Users\ADMINI~1\AppData\Local\Temp/ccM1g11j.s:1688   .bss:00000121 UART_TxTail
                             .bss:00000000 UART_TxBuf
C:\Users\ADMINI~1\AppData\Local\Temp/ccM1g11j.s:141    .text:0000009c clearBuffer
C:\Users\ADMINI~1\AppData\Local\Temp/ccM1g11j.s:157    .text:000000a6 uart_init
C:\Users\ADMINI~1\AppData\Local\Temp/ccM1g11j.s:201    .text:000000d0 uart_getc
C:\Users\ADMINI~1\AppData\Local\Temp/ccM1g11j.s:245    .text:00000108 transmitByte
C:\Users\ADMINI~1\AppData\Local\Temp/ccM1g11j.s:264    .text:00000110 uart_putc
C:\Users\ADMINI~1\AppData\Local\Temp/ccM1g11j.s:287    .text:00000118 uart_puts
C:\Users\ADMINI~1\AppData\Local\Temp/ccM1g11j.s:333    .text:0000012c uart_puts_p
C:\Users\ADMINI~1\AppData\Local\Temp/ccM1g11j.s:375    .text:00000140 lcd_write
C:\Users\ADMINI~1\AppData\Local\Temp/ccM1g11j.s:494    .text:0000019a lcd_read
C:\Users\ADMINI~1\AppData\Local\Temp/ccM1g11j.s:595    .text:000001e4 lcd_waitbusy
C:\Users\ADMINI~1\AppData\Local\Temp/ccM1g11j.s:631    .text:000001fe lcd_command
C:\Users\ADMINI~1\AppData\Local\Temp/ccM1g11j.s:655    .text:00000212 lcd_data
C:\Users\ADMINI~1\AppData\Local\Temp/ccM1g11j.s:679    .text:00000226 lcd_gotoxy
C:\Users\ADMINI~1\AppData\Local\Temp/ccM1g11j.s:705    .text:00000236 lcd_getxy
C:\Users\ADMINI~1\AppData\Local\Temp/ccM1g11j.s:720    .text:0000023e lcd_clrscr
C:\Users\ADMINI~1\AppData\Local\Temp/ccM1g11j.s:735    .text:00000246 lcd_home
C:\Users\ADMINI~1\AppData\Local\Temp/ccM1g11j.s:750    .text:0000024e lcd_putc
C:\Users\ADMINI~1\AppData\Local\Temp/ccM1g11j.s:800    .text:00000278 lcd_puts
C:\Users\ADMINI~1\AppData\Local\Temp/ccM1g11j.s:831    .text:00000290 lcd_puts_p
C:\Users\ADMINI~1\AppData\Local\Temp/ccM1g11j.s:872    .text:000002ac lcd_init
C:\Users\ADMINI~1\AppData\Local\Temp/ccM1g11j.s:1054   .text:00000320 EEPROMread
C:\Users\ADMINI~1\AppData\Local\Temp/ccM1g11j.s:1079   .text:0000032e EEPROMwrite
C:\Users\ADMINI~1\AppData\Local\Temp/ccM1g11j.s:1105   .text:0000033e decleration
C:\Users\ADMINI~1\AppData\Local\Temp/ccM1g11j.s:1159   .text:0000035c main

UNDEFINED SYMBOLS
itoa
__do_copy_data
__do_clear_bss
